target datalayout = "e-m:e-p270:32:32-p271:32:32-p272:64:64-i64:64-i128:128-f80:128-n8:16:32:64-S128"
target triple = "x86_64-pc-linux-gnu"

%"class.open_spiel::algorithms::MDPNode" = type { i8, double, %"class.absl::debian2::flat_hash_map", double, %"class.std::__cxx11::basic_string" }
%"class.absl::debian2::flat_hash_map" = type { %"class.absl::debian2::container_internal::raw_hash_map" }
%"class.absl::debian2::container_internal::raw_hash_map" = type { %"class.absl::debian2::container_internal::raw_hash_set" }
%"class.absl::debian2::container_internal::raw_hash_set" = type { ptr, ptr, i64, i64, %"class.absl::debian2::container_internal::CompressedTuple" }
%"class.absl::debian2::container_internal::CompressedTuple" = type { %"struct.absl::debian2::container_internal::internal_compressed_tuple::CompressedTupleImpl" }
%"struct.absl::debian2::container_internal::internal_compressed_tuple::CompressedTupleImpl" = type { %"struct.absl::debian2::container_internal::internal_compressed_tuple::Storage" }
%"struct.absl::debian2::container_internal::internal_compressed_tuple::Storage" = type { i64 }
%"class.std::__cxx11::basic_string" = type { %"struct.std::__cxx11::basic_string<char>::_Alloc_hider", i64, %union.anon }
%"struct.std::__cxx11::basic_string<char>::_Alloc_hider" = type { ptr }
%union.anon = type { i64, [8 x i8] }
%"class.open_spiel::algorithms::MDP" = type <{ %"class.absl::debian2::flat_hash_map.18", i32, i32, i32, [4 x i8] }>
%"class.absl::debian2::flat_hash_map.18" = type { %"class.absl::debian2::container_internal::raw_hash_map.19" }
%"class.absl::debian2::container_internal::raw_hash_map.19" = type { %"class.absl::debian2::container_internal::raw_hash_set.20" }
%"class.absl::debian2::container_internal::raw_hash_set.20" = type { ptr, ptr, i64, i64, %"class.absl::debian2::container_internal::CompressedTuple.21" }
%"class.absl::debian2::container_internal::CompressedTuple.21" = type { %"struct.absl::debian2::container_internal::internal_compressed_tuple::CompressedTupleImpl.22" }
%"struct.absl::debian2::container_internal::internal_compressed_tuple::CompressedTupleImpl.22" = type { %"struct.absl::debian2::container_internal::internal_compressed_tuple::Storage" }

; Function Attrs: mustprogress nounwind uwtable
define linkonce_odr void @_ZN10open_spiel10algorithms7MDPNode12set_terminalEb(ptr noundef nonnull align 8 dereferenceable(96) %0, i1 noundef zeroext %1) #5 comdat align 2 {
  %3 = alloca ptr, align 8
  %4 = alloca i8, align 1
  store ptr %0, ptr %3, align 8
  %5 = zext i1 %1 to i8
  store i8 %5, ptr %4, align 1
  %6 = load ptr, ptr %3, align 8
  %7 = load i8, ptr %4, align 1
  %8 = trunc i8 %7 to i1
  %9 = getelementptr inbounds nuw %"class.open_spiel::algorithms::MDPNode", ptr %6, i32 0, i32 0
  %10 = zext i1 %8 to i8
  store i8 %10, ptr %9, align 8
  ret void
}

; Function Attrs: mustprogress uwtable
define noundef ptr @_ZN10open_spiel10algorithms3MDP18CreateTerminalNodeERKNSt7__cxx1112basic_stringIcSt11char_traitsIcESaIcEEE(ptr noundef nonnull align 8 dereferenceable(52) %0, ptr noundef nonnull align 8 dereferenceable(32) %1) #4 align 2 {
  %3 = alloca ptr, align 8
  %4 = alloca ptr, align 8
  %5 = alloca ptr, align 8
  store ptr %0, ptr %3, align 8
  store ptr %1, ptr %4, align 8
  %6 = load ptr, ptr %3, align 8
  %7 = getelementptr inbounds nuw %"class.open_spiel::algorithms::MDP", ptr %6, i32 0, i32 1
  %8 = load i32, ptr %7, align 8
  %9 = add nsw i32 %8, 1
  store i32 %9, ptr %7, align 8
  %10 = load ptr, ptr %4, align 8
  %11 = call noundef ptr @_ZN10open_spiel10algorithms3MDP18LookupOrCreateNodeERKNSt7__cxx1112basic_stringIcSt11char_traitsIcESaIcEEEb(ptr noundef nonnull align 8 dereferenceable(52) %6, ptr noundef nonnull align 8 dereferenceable(32) %10, i1 noundef zeroext true)
  store ptr %11, ptr %5, align 8
  %12 = load ptr, ptr %5, align 8
  call void @_ZN10open_spiel10algorithms7MDPNode12set_terminalEb(ptr noundef nonnull align 8 dereferenceable(96) %12, i1 noundef zeroext true)
  %13 = load ptr, ptr %5, align 8
  ret ptr %13
}