; Function Attrs: mustprogress uwtable
define noundef ptr @_ZN10open_spiel10algorithms3MDP18CreateTerminalNodeERKNSt7__cxx1112basic_stringIcSt11char_traitsIcESaIcEEE(ptr noundef nonnull align 8 dereferenceable(52) %0, ptr noundef nonnull align 8 dereferenceable(32) %1) local_unnamed_addr #3 align 2 {
  %3 = getelementptr inbounds nuw i8, ptr %0, i64 40
  %4 = load i32, ptr %3, align 8
  %5 = add nsw i32 %4, 1
  store i32 %5, ptr %3, align 8
  %6 = tail call noundef ptr @_ZN10open_spiel10algorithms3MDP18LookupOrCreateNodeERKNSt7__cxx1112basic_stringIcSt11char_traitsIcESaIcEEEb(ptr noundef nonnull align 8 dereferenceable(52) %0, ptr noundef nonnull align 8 dereferenceable(32) %1, i1 noundef zeroext true)
  store i8 1, ptr %6, align 8
  ret ptr %6
}